	.file	"my_ptrace.c"
	.text
.Ltext0:
	.comm	regs,216,32
	.section	.rodata
.LC0:
	.string	"ls"
.LC1:
	.string	"/bin/ls"
.LC2:
	.string	"Fork failed."
.LC3:
	.string	"[SYSCALL]:%-20s\t%5lld\n"
	.text
	.globl	main
	.type	main, @function
main:
.LFB6:
	.file 1 "my_ptrace.c"
	.loc 1 18 12
	.cfi_startproc
	endbr64
	pushq	%rbp
	.cfi_def_cfa_offset 16
	.cfi_offset 6, -16
	movq	%rsp, %rbp
	.cfi_def_cfa_register 6
	pushq	%rbx
	subq	$24, %rsp
	.cfi_offset 3, -24
	.loc 1 18 12
	movq	%fs:40, %rax
	movq	%rax, -24(%rbp)
	xorl	%eax, %eax
	.loc 1 19 17
	call	fork@PLT
	movl	%eax, -28(%rbp)
	.loc 1 20 6
	cmpl	$0, -28(%rbp)
	jne	.L2
	.loc 1 21 5
	movl	$0, %ecx
	movl	$0, %edx
	movl	$0, %esi
	movl	$0, %edi
	movl	$0, %eax
	call	ptrace@PLT
	.loc 1 22 5
	movl	$19, %edi
	call	raise@PLT
	.loc 1 24 5
	movl	$0, %edx
	leaq	.LC0(%rip), %rsi
	leaq	.LC1(%rip), %rdi
	movl	$0, %eax
	call	execl@PLT
	jmp	.L3
.L2:
	.loc 1 25 13
	cmpl	$0, -28(%rbp)
	jns	.L5
	.loc 1 26 5
	leaq	.LC2(%rip), %rdi
	call	puts@PLT
	jmp	.L3
.L7:
.LBB2:
	.loc 1 31 7
	movl	-28(%rbp), %eax
	leaq	regs(%rip), %rcx
	movl	$0, %edx
	movl	%eax, %esi
	movl	$12, %edi
	movl	$0, %eax
	call	ptrace@PLT
	.loc 1 33 7
	movq	120+regs(%rip), %rbx
	.loc 1 33 66
	movq	120+regs(%rip), %rax
	.loc 1 33 7
	movq	%rax, %rdi
	call	get_syscode
	movq	%rax, %rdx
	movq	stderr(%rip), %rax
	movq	%rbx, %rcx
	leaq	.LC3(%rip), %rsi
	movq	%rax, %rdi
	movl	$0, %eax
	call	fprintf@PLT
	.loc 1 36 7
	movl	-28(%rbp), %eax
	movl	$0, %ecx
	movl	$0, %edx
	movl	%eax, %esi
	movl	$24, %edi
	movl	$0, %eax
	call	ptrace@PLT
.L5:
	.loc 1 29 12
	leaq	-32(%rbp), %rcx
	movl	-28(%rbp), %eax
	movl	$0, %edx
	movq	%rcx, %rsi
	movl	%eax, %edi
	call	waitpid@PLT
	.loc 1 29 11
	testl	%eax, %eax
	je	.L3
	.loc 1 29 44 discriminator 1
	movl	-32(%rbp), %eax
	andl	$127, %eax
	.loc 1 29 39 discriminator 1
	testl	%eax, %eax
	jne	.L7
.L3:
.LBE2:
	.loc 1 39 10
	movl	$0, %eax
	.loc 1 40 1
	movq	-24(%rbp), %rbx
	xorq	%fs:40, %rbx
	je	.L9
	call	__stack_chk_fail@PLT
.L9:
	addq	$24, %rsp
	popq	%rbx
	popq	%rbp
	.cfi_def_cfa 7, 8
	ret
	.cfi_endproc
.LFE6:
	.size	main, .-main
	.section	.rodata
.LC4:
	.string	"hehe %ld\n"
.LC5:
	.string	"SYS_read\n"
.LC6:
	.string	"SYS_write"
.LC7:
	.string	"SYS_close"
.LC8:
	.string	"SYS_fstat"
.LC9:
	.string	"SYS_mmap"
.LC10:
	.string	"SYS_mprotect"
.LC11:
	.string	"SYS_munmap"
.LC12:
	.string	"SYS_brk"
.LC13:
	.string	"SYS_rt_sigaction"
.LC14:
	.string	"SYS_rt_sigprocmask"
.LC15:
	.string	"SYS_rt_sigreturn"
.LC16:
	.string	"SYS_ioctl"
.LC17:
	.string	"SYS_getpid"
.LC18:
	.string	"SYS_getdents64"
.LC19:
	.string	"SYS_tgkill"
.LC20:
	.string	"SYS_pread64"
.LC21:
	.string	"SYS_access"
.LC22:
	.string	"SYS_pipe"
.LC23:
	.string	"SYS_execve"
.LC24:
	.string	"SYS_getdents"
.LC25:
	.string	"SYS_statfs"
.LC26:
	.string	"SYS_exit_group"
.LC27:
	.string	"SYS_openat"
.LC28:
	.string	"SYS_mkdirat"
.LC29:
	.string	"SYS_prlimit64"
.LC30:
	.string	"SYS_arch_prctl"
.LC31:
	.string	"SYS_set_tid_address"
.LC32:
	.string	"SYS_set_robust_list"
	.align 8
.LC33:
	.string	"Not registered in the function list.\n"
	.text
	.globl	get_syscode
	.type	get_syscode, @function
get_syscode:
.LFB7:
	.loc 1 42 36
	.cfi_startproc
	endbr64
	pushq	%rbp
	.cfi_def_cfa_offset 16
	.cfi_offset 6, -16
	movq	%rsp, %rbp
	.cfi_def_cfa_register 6
	subq	$16, %rsp
	movq	%rdi, -8(%rbp)
	.loc 1 43 5
	movq	-8(%rbp), %rax
	movq	%rax, %rsi
	leaq	.LC4(%rip), %rdi
	movl	$0, %eax
	call	printf@PLT
	.loc 1 44 3
	cmpq	$302, -8(%rbp)
	je	.L11
	cmpq	$302, -8(%rbp)
	jg	.L12
	cmpq	$273, -8(%rbp)
	je	.L13
	cmpq	$273, -8(%rbp)
	jg	.L12
	cmpq	$158, -8(%rbp)
	jg	.L14
	cmpq	$0, -8(%rbp)
	jns	.L15
	jmp	.L12
.L44:
	movq	-8(%rbp), %rax
	subq	$217, %rax
	cmpq	$41, %rax
	ja	.L12
	leaq	0(,%rax,4), %rdx
	leaq	.L17(%rip), %rax
	movl	(%rdx,%rax), %eax
	cltq
	leaq	.L17(%rip), %rdx
	addq	%rdx, %rax
	notrack jmp	*%rax
	.section	.rodata
	.align 4
	.align 4
.L17:
	.long	.L22-.L17
	.long	.L21-.L17
	.long	.L12-.L17
	.long	.L12-.L17
	.long	.L12-.L17
	.long	.L12-.L17
	.long	.L12-.L17
	.long	.L12-.L17
	.long	.L12-.L17
	.long	.L12-.L17
	.long	.L12-.L17
	.long	.L12-.L17
	.long	.L12-.L17
	.long	.L12-.L17
	.long	.L20-.L17
	.long	.L12-.L17
	.long	.L12-.L17
	.long	.L19-.L17
	.long	.L12-.L17
	.long	.L12-.L17
	.long	.L12-.L17
	.long	.L12-.L17
	.long	.L12-.L17
	.long	.L12-.L17
	.long	.L12-.L17
	.long	.L12-.L17
	.long	.L12-.L17
	.long	.L12-.L17
	.long	.L12-.L17
	.long	.L12-.L17
	.long	.L12-.L17
	.long	.L12-.L17
	.long	.L12-.L17
	.long	.L12-.L17
	.long	.L12-.L17
	.long	.L12-.L17
	.long	.L12-.L17
	.long	.L12-.L17
	.long	.L12-.L17
	.long	.L12-.L17
	.long	.L18-.L17
	.long	.L16-.L17
	.text
.L15:
	cmpq	$158, -8(%rbp)
	ja	.L12
	movq	-8(%rbp), %rax
	leaq	0(,%rax,4), %rdx
	leaq	.L24(%rip), %rax
	movl	(%rdx,%rax), %eax
	cltq
	leaq	.L24(%rip), %rdx
	addq	%rdx, %rax
	notrack jmp	*%rax
	.section	.rodata
	.align 4
	.align 4
.L24:
	.long	.L43-.L24
	.long	.L42-.L24
	.long	.L12-.L24
	.long	.L41-.L24
	.long	.L12-.L24
	.long	.L40-.L24
	.long	.L12-.L24
	.long	.L12-.L24
	.long	.L12-.L24
	.long	.L39-.L24
	.long	.L38-.L24
	.long	.L37-.L24
	.long	.L36-.L24
	.long	.L35-.L24
	.long	.L34-.L24
	.long	.L33-.L24
	.long	.L32-.L24
	.long	.L31-.L24
	.long	.L12-.L24
	.long	.L12-.L24
	.long	.L12-.L24
	.long	.L30-.L24
	.long	.L29-.L24
	.long	.L12-.L24
	.long	.L12-.L24
	.long	.L12-.L24
	.long	.L12-.L24
	.long	.L12-.L24
	.long	.L12-.L24
	.long	.L12-.L24
	.long	.L12-.L24
	.long	.L12-.L24
	.long	.L12-.L24
	.long	.L12-.L24
	.long	.L12-.L24
	.long	.L12-.L24
	.long	.L12-.L24
	.long	.L12-.L24
	.long	.L12-.L24
	.long	.L28-.L24
	.long	.L12-.L24
	.long	.L12-.L24
	.long	.L12-.L24
	.long	.L12-.L24
	.long	.L12-.L24
	.long	.L12-.L24
	.long	.L12-.L24
	.long	.L12-.L24
	.long	.L12-.L24
	.long	.L12-.L24
	.long	.L12-.L24
	.long	.L12-.L24
	.long	.L12-.L24
	.long	.L12-.L24
	.long	.L12-.L24
	.long	.L12-.L24
	.long	.L12-.L24
	.long	.L12-.L24
	.long	.L12-.L24
	.long	.L27-.L24
	.long	.L12-.L24
	.long	.L12-.L24
	.long	.L12-.L24
	.long	.L12-.L24
	.long	.L12-.L24
	.long	.L12-.L24
	.long	.L12-.L24
	.long	.L12-.L24
	.long	.L12-.L24
	.long	.L12-.L24
	.long	.L12-.L24
	.long	.L12-.L24
	.long	.L12-.L24
	.long	.L12-.L24
	.long	.L12-.L24
	.long	.L12-.L24
	.long	.L12-.L24
	.long	.L12-.L24
	.long	.L26-.L24
	.long	.L12-.L24
	.long	.L12-.L24
	.long	.L12-.L24
	.long	.L12-.L24
	.long	.L12-.L24
	.long	.L12-.L24
	.long	.L12-.L24
	.long	.L12-.L24
	.long	.L12-.L24
	.long	.L12-.L24
	.long	.L12-.L24
	.long	.L12-.L24
	.long	.L12-.L24
	.long	.L12-.L24
	.long	.L12-.L24
	.long	.L12-.L24
	.long	.L12-.L24
	.long	.L12-.L24
	.long	.L12-.L24
	.long	.L12-.L24
	.long	.L12-.L24
	.long	.L12-.L24
	.long	.L12-.L24
	.long	.L12-.L24
	.long	.L12-.L24
	.long	.L12-.L24
	.long	.L12-.L24
	.long	.L12-.L24
	.long	.L12-.L24
	.long	.L12-.L24
	.long	.L12-.L24
	.long	.L12-.L24
	.long	.L12-.L24
	.long	.L12-.L24
	.long	.L12-.L24
	.long	.L12-.L24
	.long	.L12-.L24
	.long	.L12-.L24
	.long	.L12-.L24
	.long	.L12-.L24
	.long	.L12-.L24
	.long	.L12-.L24
	.long	.L12-.L24
	.long	.L12-.L24
	.long	.L12-.L24
	.long	.L12-.L24
	.long	.L12-.L24
	.long	.L12-.L24
	.long	.L12-.L24
	.long	.L12-.L24
	.long	.L12-.L24
	.long	.L12-.L24
	.long	.L12-.L24
	.long	.L12-.L24
	.long	.L12-.L24
	.long	.L12-.L24
	.long	.L12-.L24
	.long	.L12-.L24
	.long	.L25-.L24
	.long	.L12-.L24
	.long	.L12-.L24
	.long	.L12-.L24
	.long	.L12-.L24
	.long	.L12-.L24
	.long	.L12-.L24
	.long	.L12-.L24
	.long	.L12-.L24
	.long	.L12-.L24
	.long	.L12-.L24
	.long	.L12-.L24
	.long	.L12-.L24
	.long	.L12-.L24
	.long	.L12-.L24
	.long	.L12-.L24
	.long	.L12-.L24
	.long	.L12-.L24
	.long	.L12-.L24
	.long	.L12-.L24
	.long	.L12-.L24
	.long	.L23-.L24
	.text
.L14:
	cmpq	$258, -8(%rbp)
	jg	.L12
	cmpq	$217, -8(%rbp)
	jge	.L44
	jmp	.L12
.L43:
	.loc 1 47 14
	leaq	.LC5(%rip), %rax
	jmp	.L45
.L42:
	.loc 1 48 13
	leaq	.LC6(%rip), %rax
	jmp	.L45
.L41:
	.loc 1 49 13
	leaq	.LC7(%rip), %rax
	jmp	.L45
.L40:
	.loc 1 50 13
	leaq	.LC8(%rip), %rax
	jmp	.L45
.L39:
	.loc 1 51 13
	leaq	.LC9(%rip), %rax
	jmp	.L45
.L38:
	.loc 1 52 13
	leaq	.LC10(%rip), %rax
	jmp	.L45
.L37:
	.loc 1 53 13
	leaq	.LC11(%rip), %rax
	jmp	.L45
.L36:
	.loc 1 54 13
	leaq	.LC12(%rip), %rax
	jmp	.L45
.L35:
	.loc 1 55 13
	leaq	.LC13(%rip), %rax
	jmp	.L45
.L34:
	.loc 1 56 13
	leaq	.LC14(%rip), %rax
	jmp	.L45
.L33:
	.loc 1 57 13
	leaq	.LC15(%rip), %rax
	jmp	.L45
.L32:
	.loc 1 58 13
	leaq	.LC16(%rip), %rax
	jmp	.L45
.L28:
	.loc 1 59 13
	leaq	.LC17(%rip), %rax
	jmp	.L45
.L22:
	.loc 1 60 13
	leaq	.LC18(%rip), %rax
	jmp	.L45
.L19:
	.loc 1 61 13
	leaq	.LC19(%rip), %rax
	jmp	.L45
.L31:
	.loc 1 62 13
	leaq	.LC20(%rip), %rax
	jmp	.L45
.L30:
	.loc 1 63 13
	leaq	.LC21(%rip), %rax
	jmp	.L45
.L29:
	.loc 1 64 13
	leaq	.LC22(%rip), %rax
	jmp	.L45
.L27:
	.loc 1 65 13
	leaq	.LC23(%rip), %rax
	jmp	.L45
.L26:
	.loc 1 66 13
	leaq	.LC24(%rip), %rax
	jmp	.L45
.L25:
	.loc 1 67 13
	leaq	.LC25(%rip), %rax
	jmp	.L45
.L20:
	.loc 1 68 13
	leaq	.LC26(%rip), %rax
	jmp	.L45
.L18:
	.loc 1 69 13
	leaq	.LC27(%rip), %rax
	jmp	.L45
.L16:
	.loc 1 70 13
	leaq	.LC28(%rip), %rax
	jmp	.L45
.L11:
	.loc 1 71 13
	leaq	.LC29(%rip), %rax
	jmp	.L45
.L23:
	.loc 1 72 13
	leaq	.LC30(%rip), %rax
	jmp	.L45
.L21:
	.loc 1 73 13
	leaq	.LC31(%rip), %rax
	jmp	.L45
.L13:
	.loc 1 74 13
	leaq	.LC32(%rip), %rax
	jmp	.L45
.L12:
	.loc 1 77 12
	leaq	.LC33(%rip), %rax
.L45:
	.loc 1 79 1
	leave
	.cfi_def_cfa 7, 8
	ret
	.cfi_endproc
.LFE7:
	.size	get_syscode, .-get_syscode
.Letext0:
	.file 2 "/usr/lib/gcc/x86_64-linux-gnu/9/include/stddef.h"
	.file 3 "/usr/include/x86_64-linux-gnu/bits/types.h"
	.file 4 "/usr/include/x86_64-linux-gnu/bits/types/struct_FILE.h"
	.file 5 "/usr/include/x86_64-linux-gnu/bits/types/FILE.h"
	.file 6 "/usr/include/stdio.h"
	.file 7 "/usr/include/x86_64-linux-gnu/bits/sys_errlist.h"
	.file 8 "/usr/include/x86_64-linux-gnu/sys/types.h"
	.file 9 "/usr/include/x86_64-linux-gnu/sys/user.h"
	.file 10 "/usr/include/signal.h"
	.file 11 "/usr/include/unistd.h"
	.file 12 "/usr/include/x86_64-linux-gnu/bits/getopt_core.h"
	.file 13 "/usr/include/x86_64-linux-gnu/sys/ptrace.h"
	.section	.note.GNU-stack,"",@progbits
	.section	.note.gnu.property,"a"
	.align 8
	.long	 1f - 0f
	.long	 4f - 1f
	.long	 5
0:
	.string	 "GNU"
1:
	.align 8
	.long	 0xc0000002
	.long	 3f - 2f
2:
	.long	 0x3
3:
	.align 8
4:
